; Function Attrs: mustprogress nounwind uwtable
define internal void @_ZNK12_GLOBAL__N_117LockableFactEntry10handleLockERNS_7FactSetERNS_11FactManagerERKNS_9FactEntryERN5clang12threadSafety19ThreadSafetyHandlerE(ptr noundef nonnull readonly align 8 captures(none) dereferenceable(40) %0, ptr nonnull readnone align 8 captures(none) %1, ptr nonnull readnone align 8 captures(none) %2, ptr noundef nonnull align 8 dereferenceable(40) %3, ptr noundef nonnull align 8 dereferenceable(9) %4) unnamed_addr #1 align 2 {
  %6 = alloca %"class.std::__cxx11::basic_string", align 8
  %7 = getelementptr inbounds nuw i8, ptr %3, i64 8
  %8 = getelementptr inbounds nuw i8, ptr %3, i64 16
  %.sroa.0.0.copyload.i = load ptr, ptr %8, align 8
  %.sroa.2.0..sroa_idx.i = getelementptr inbounds nuw i8, ptr %3, i64 24
  %.sroa.2.0.copyload.i = load i64, ptr %.sroa.2.0..sroa_idx.i, align 8
  call void @_ZNK5clang12threadSafety14CapabilityExpr8toStringB5cxx11Ev(ptr dead_on_unwind nonnull writable sret(%"class.std::__cxx11::basic_string") align 8 %6, ptr noundef nonnull align 8 dereferenceable(24) %7)
  %9 = call noundef ptr @_ZNKSt7__cxx1112basic_stringIcSt11char_traitsIcESaIcEE4dataEv(ptr noundef nonnull align 8 dereferenceable(32) %6) #18
  %10 = call noundef i64 @_ZNKSt7__cxx1112basic_stringIcSt11char_traitsIcESaIcEE6lengthEv(ptr noundef nonnull align 8 dereferenceable(32) %6) #18
  %11 = getelementptr inbounds nuw i8, ptr %0, i64 36
  %.val = load i32, ptr %11, align 4
  %12 = getelementptr inbounds nuw i8, ptr %3, i64 36
  %.val7 = load i32, ptr %12, align 4
  %13 = load ptr, ptr %4, align 8
  %14 = getelementptr inbounds nuw i8, ptr %13, i64 40
  %15 = load ptr, ptr %14, align 8
  call void %15(ptr noundef nonnull align 8 dereferenceable(9) %4, ptr %.sroa.0.0.copyload.i, i64 %.sroa.2.0.copyload.i, ptr %9, i64 %10, i32 %.val, i32 %.val7) #18
  call void @_ZNSt7__cxx1112basic_stringIcSt11char_traitsIcESaIcEED1Ev(ptr noundef nonnull align 8 dereferenceable(32) %6) #18
  ret void
}